Archive member included because of file (symbol)

/home/sl/Code/School/CMPSC483W/zoidbergengine/cb_project_linux/../devkitpro/libnds/lib/libdswifi7.a(wifi_arm7.o)
                              main.o (installWifiFIFO)
/home/sl/Code/School/CMPSC483W/zoidbergengine/cb_project_linux/../devkitpro/libnds/lib/libdswifi7.a(spinlock.o)
                              /home/sl/Code/School/CMPSC483W/zoidbergengine/cb_project_linux/../devkitpro/libnds/lib/libdswifi7.a(wifi_arm7.o) (SLasm_Acquire)
/home/sl/Code/School/CMPSC483W/zoidbergengine/cb_project_linux/../devkitpro/libnds/lib/libmm7.a(mm_main.o)
                              main.o (mmInstall)
/home/sl/Code/School/CMPSC483W/zoidbergengine/cb_project_linux/../devkitpro/libnds/lib/libmm7.a(mm_mas.o)
                              /home/sl/Code/School/CMPSC483W/zoidbergengine/cb_project_linux/../devkitpro/libnds/lib/libmm7.a(mm_main.o) (mm_achannels)
/home/sl/Code/School/CMPSC483W/zoidbergengine/cb_project_linux/../devkitpro/libnds/lib/libmm7.a(mm_mas_arm.o)
                              /home/sl/Code/School/CMPSC483W/zoidbergengine/cb_project_linux/../devkitpro/libnds/lib/libmm7.a(mm_mas.o) (mmAllocChannel)
/home/sl/Code/School/CMPSC483W/zoidbergengine/cb_project_linux/../devkitpro/libnds/lib/libmm7.a(mm_comms7.o)
                              /home/sl/Code/School/CMPSC483W/zoidbergengine/cb_project_linux/../devkitpro/libnds/lib/libmm7.a(mm_main.o) (mmSetupComms)
/home/sl/Code/School/CMPSC483W/zoidbergengine/cb_project_linux/../devkitpro/libnds/lib/libmm7.a(mm_mixer_super.o)
                              /home/sl/Code/School/CMPSC483W/zoidbergengine/cb_project_linux/../devkitpro/libnds/lib/libmm7.a(mm_main.o) (mm_mix_channels)
/home/sl/Code/School/CMPSC483W/zoidbergengine/cb_project_linux/../devkitpro/libnds/lib/libmm7.a(mm_reverb.o)
                              /home/sl/Code/School/CMPSC483W/zoidbergengine/cb_project_linux/../devkitpro/libnds/lib/libmm7.a(mm_comms7.o) (mmReverbEnable)
/home/sl/Code/School/CMPSC483W/zoidbergengine/cb_project_linux/../devkitpro/libnds/lib/libmm7.a(mm_stream.o)
                              /home/sl/Code/School/CMPSC483W/zoidbergengine/cb_project_linux/../devkitpro/libnds/lib/libmm7.a(mm_comms7.o) (mmStreamBegin)
/home/sl/Code/School/CMPSC483W/zoidbergengine/cb_project_linux/../devkitpro/libnds/lib/libmm7.a(mm_effect.o)
                              /home/sl/Code/School/CMPSC483W/zoidbergengine/cb_project_linux/../devkitpro/libnds/lib/libmm7.a(mm_comms7.o) (mm_sfx_clearmask)
/home/sl/Code/School/CMPSC483W/zoidbergengine/cb_project_linux/../devkitpro/libnds/lib/libnds7.a(audio.o)
                              main.o (installSoundFIFO)
/home/sl/Code/School/CMPSC483W/zoidbergengine/cb_project_linux/../devkitpro/libnds/lib/libnds7.a(clock.o)
                              main.o (initClockIRQ)
/home/sl/Code/School/CMPSC483W/zoidbergengine/cb_project_linux/../devkitpro/libnds/lib/libnds7.a(input.o)
                              main.o (inputGetAndSend)
/home/sl/Code/School/CMPSC483W/zoidbergengine/cb_project_linux/../devkitpro/libnds/lib/libnds7.a(microphone.o)
                              /home/sl/Code/School/CMPSC483W/zoidbergengine/cb_project_linux/../devkitpro/libnds/lib/libnds7.a(audio.o) (micStopRecording)
/home/sl/Code/School/CMPSC483W/zoidbergengine/cb_project_linux/../devkitpro/libnds/lib/libnds7.a(spi.o)
                              /home/sl/Code/School/CMPSC483W/zoidbergengine/cb_project_linux/../devkitpro/libnds/lib/libnds7.a(audio.o) (writePowerManagement)
/home/sl/Code/School/CMPSC483W/zoidbergengine/cb_project_linux/../devkitpro/libnds/lib/libnds7.a(system.o)
                              main.o (installSystemFIFO)
/home/sl/Code/School/CMPSC483W/zoidbergengine/cb_project_linux/../devkitpro/libnds/lib/libnds7.a(touch.o)
                              /home/sl/Code/School/CMPSC483W/zoidbergengine/cb_project_linux/../devkitpro/libnds/lib/libnds7.a(input.o) (touchReadXY)
/home/sl/Code/School/CMPSC483W/zoidbergengine/cb_project_linux/../devkitpro/libnds/lib/libnds7.a(userSettings.o)
                              main.o (readUserSettings)
/home/sl/Code/School/CMPSC483W/zoidbergengine/cb_project_linux/../devkitpro/libnds/lib/libnds7.a(fifosystem.o)
                              /home/sl/Code/School/CMPSC483W/zoidbergengine/cb_project_linux/../devkitpro/libnds/lib/libdswifi7.a(wifi_arm7.o) (fifoSendValue32)
/home/sl/Code/School/CMPSC483W/zoidbergengine/cb_project_linux/../devkitpro/libnds/lib/libnds7.a(interrupts.o)
                              main.o (irqSet)
/home/sl/Code/School/CMPSC483W/zoidbergengine/cb_project_linux/../devkitpro/libnds/lib/libnds7.a(libnds_exit.o)
                              /home/sl/Code/School/CMPSC483W/zoidbergengine/devkitpro/devkitARM/bin/../lib/gcc/arm-eabi/4.4.2/../../../../arm-eabi/lib/ds_arm7_crt0.o (__libnds_exit)
/home/sl/Code/School/CMPSC483W/zoidbergengine/cb_project_linux/../devkitpro/libnds/lib/libnds7.a(biosCalls.o)
                              /home/sl/Code/School/CMPSC483W/zoidbergengine/cb_project_linux/../devkitpro/libnds/lib/libdswifi7.a(wifi_arm7.o) (swiDelay)
/home/sl/Code/School/CMPSC483W/zoidbergengine/cb_project_linux/../devkitpro/libnds/lib/libnds7.a(interruptDispatcher.o)
                              /home/sl/Code/School/CMPSC483W/zoidbergengine/cb_project_linux/../devkitpro/libnds/lib/libnds7.a(interrupts.o) (IntrMain)
/home/sl/Code/School/CMPSC483W/zoidbergengine/devkitpro/devkitARM/bin/../lib/gcc/arm-eabi/4.4.2/libgcc.a(_divsi3.o)
                              /home/sl/Code/School/CMPSC483W/zoidbergengine/cb_project_linux/../devkitpro/libnds/lib/libnds7.a(audio.o) (__aeabi_idiv)
/home/sl/Code/School/CMPSC483W/zoidbergengine/devkitpro/devkitARM/bin/../lib/gcc/arm-eabi/4.4.2/libgcc.a(_dvmd_tls.o)
                              /home/sl/Code/School/CMPSC483W/zoidbergengine/devkitpro/devkitARM/bin/../lib/gcc/arm-eabi/4.4.2/libgcc.a(_divsi3.o) (__div0)
/home/sl/Code/School/CMPSC483W/zoidbergengine/devkitpro/devkitARM/bin/../lib/gcc/arm-eabi/4.4.2/libgcc.a(_call_via_rX.o)
                              /home/sl/Code/School/CMPSC483W/zoidbergengine/cb_project_linux/../devkitpro/libnds/lib/libmm7.a(mm_comms7.o) (_call_via_r1)
/home/sl/Code/School/CMPSC483W/zoidbergengine/devkitpro/devkitARM/bin/../lib/gcc/arm-eabi/4.4.2/../../../../arm-eabi/lib/libg.a(lib_a-init.o)
                              /home/sl/Code/School/CMPSC483W/zoidbergengine/devkitpro/devkitARM/bin/../lib/gcc/arm-eabi/4.4.2/../../../../arm-eabi/lib/ds_arm7_crt0.o (__libc_init_array)
/home/sl/Code/School/CMPSC483W/zoidbergengine/devkitpro/devkitARM/bin/../lib/gcc/arm-eabi/4.4.2/../../../../arm-eabi/lib/libg.a(lib_a-memcpy.o)
                              /home/sl/Code/School/CMPSC483W/zoidbergengine/cb_project_linux/../devkitpro/libnds/lib/libnds7.a(userSettings.o) (memcpy)
/home/sl/Code/School/CMPSC483W/zoidbergengine/devkitpro/devkitARM/bin/../lib/gcc/arm-eabi/4.4.2/../../../../arm-eabi/lib/libg.a(lib_a-memset.o)
                              /home/sl/Code/School/CMPSC483W/zoidbergengine/cb_project_linux/../devkitpro/libnds/lib/libnds7.a(input.o) (memset)

Allocating common symbols
Common symbol       size              file

fifo_datamsg_data   0x40              /home/sl/Code/School/CMPSC483W/zoidbergengine/cb_project_linux/../devkitpro/libnds/lib/libnds7.a(fifosystem.o)
arm7q               0x800             /home/sl/Code/School/CMPSC483W/zoidbergengine/cb_project_linux/../devkitpro/libnds/lib/libdswifi7.a(wifi_arm7.o)
fifo_buffer         0x400             /home/sl/Code/School/CMPSC483W/zoidbergengine/cb_project_linux/../devkitpro/libnds/lib/libnds7.a(fifosystem.o)
fifo_value32_func   0x40              /home/sl/Code/School/CMPSC483W/zoidbergengine/cb_project_linux/../devkitpro/libnds/lib/libnds7.a(fifosystem.o)
fifo_address_func   0x40              /home/sl/Code/School/CMPSC483W/zoidbergengine/cb_project_linux/../devkitpro/libnds/lib/libnds7.a(fifosystem.o)
fifo_value32_data   0x40              /home/sl/Code/School/CMPSC483W/zoidbergengine/cb_project_linux/../devkitpro/libnds/lib/libnds7.a(fifosystem.o)
fifo_value32_queue  0x40              /home/sl/Code/School/CMPSC483W/zoidbergengine/cb_project_linux/../devkitpro/libnds/lib/libnds7.a(fifosystem.o)
FlashData           0x200             /home/sl/Code/School/CMPSC483W/zoidbergengine/cb_project_linux/../devkitpro/libnds/lib/libdswifi7.a(wifi_arm7.o)
fifo_data_queue     0x40              /home/sl/Code/School/CMPSC483W/zoidbergengine/cb_project_linux/../devkitpro/libnds/lib/libnds7.a(fifosystem.o)
Keys                0x1               /home/sl/Code/School/CMPSC483W/zoidbergengine/cb_project_linux/../devkitpro/libnds/lib/libnds7.a(input.o)
irqTable            0xc8              /home/sl/Code/School/CMPSC483W/zoidbergengine/cb_project_linux/../devkitpro/libnds/lib/libnds7.a(interrupts.o)
fifo_address_data   0x40              /home/sl/Code/School/CMPSC483W/zoidbergengine/cb_project_linux/../devkitpro/libnds/lib/libnds7.a(fifosystem.o)
fifo_datamsg_func   0x40              /home/sl/Code/School/CMPSC483W/zoidbergengine/cb_project_linux/../devkitpro/libnds/lib/libnds7.a(fifosystem.o)
fifo_address_queue  0x40              /home/sl/Code/School/CMPSC483W/zoidbergengine/cb_project_linux/../devkitpro/libnds/lib/libnds7.a(fifosystem.o)

Memory Configuration

Name             Origin             Length             Attributes
rom              0x08000000         0x02000000
iwram            0x037f8000         0x00018000
*default*        0x00000000         0xffffffff

Linker script and memory map

                0x037f8000                __iwram_start = 0x37f8000
                0x03810000                __iwram_top = 0x3810000
                0x0380ffa0                __sp_irq = (__iwram_top - 0x60)
                0x0380fea0                __sp_svc = (__sp_irq - 0x100)
                0x0380fda0                __sp_usr = (__sp_svc - 0x100)
                0x0380fff8                __irq_flags = (__iwram_top - 0x8)
                0x0380fffc                __irq_vector = (__iwram_top - 0x4)

.init           0x037f8000       0xe8
                0x037f8000                __text_start = .
 *(.init)
 .init          0x037f8000       0xd0 /home/sl/Code/School/CMPSC483W/zoidbergengine/devkitpro/devkitARM/bin/../lib/gcc/arm-eabi/4.4.2/../../../../arm-eabi/lib/ds_arm7_crt0.o
                0x037f8000                _start
 .init          0x037f80d0        0xc /home/sl/Code/School/CMPSC483W/zoidbergengine/devkitpro/devkitARM/bin/../lib/gcc/arm-eabi/4.4.2/crti.o
                0x037f80d0                _init
 .init          0x037f80dc        0xc /home/sl/Code/School/CMPSC483W/zoidbergengine/devkitpro/devkitARM/bin/../lib/gcc/arm-eabi/4.4.2/crtn.o
                0x037f80e8                . = ALIGN (0x4)

.plt
 *(.plt)

.text           0x037f80f0     0xad90
 *(.text .stub .text.* .gnu.linkonce.t.*)
 .text          0x037f80f0        0x0 /home/sl/Code/School/CMPSC483W/zoidbergengine/devkitpro/devkitARM/bin/../lib/gcc/arm-eabi/4.4.2/../../../../arm-eabi/lib/ds_arm7_crt0.o
 .text          0x037f80f0        0x0 /home/sl/Code/School/CMPSC483W/zoidbergengine/devkitpro/devkitARM/bin/../lib/gcc/arm-eabi/4.4.2/crti.o
 .text          0x037f80f0       0x94 /home/sl/Code/School/CMPSC483W/zoidbergengine/devkitpro/devkitARM/bin/../lib/gcc/arm-eabi/4.4.2/crtbegin.o
 .text          0x037f8184       0x90 main.o
                0x037f8184                main
                0x037f81f4                _Z13VblankHandlerv
                0x037f8204                _Z13VcountHandlerv
 .text          0x037f8214     0x374c /home/sl/Code/School/CMPSC483W/zoidbergengine/cb_project_linux/../devkitpro/libnds/lib/libdswifi7.a(wifi_arm7.o)
                0x037f8214                ReadFlashByte
                0x037f822c                ReadFlashBytes
                0x037f8284                ReadFlashHWord
                0x037f82b0                crc16_slow
                0x037f8308                Wifi_BBRead
                0x037f8348                Wifi_BBWrite
                0x037f83c8                Wifi_RFWrite
                0x037f8404                PowerChip_ReadWrite
                0x037f8480                SetLedState
                0x037f84d0                ProxySetLedState
                0x037f84ec                Wifi_RFInit
                0x037f8710                Wifi_BBInit
                0x037f8754                Wifi_MacInit
                0x037f8784                Wifi_TxSetup
                0x037f8798                Wifi_RxSetup
                0x037f87f0                Wifi_Shutdown
                0x037f889c                Wifi_CopyMacAddr
                0x037f88b8                Wifi_CmpMacAddr
                0x037f88f8                Wifi_MACRead
                0x037f8948                Wifi_MACCopy
                0x037f89e4                Wifi_MACWrite
                0x037f8a80                Wifi_QueueRxMacData
                0x037f8b98                Wifi_CheckTxBuf
                0x037f8bd0                Wifi_CopyFirstTxData
                0x037f8cf4                Wifi_TxRaw
                0x037f8d64                Wifi_TxCheck
                0x037f8d7c                Wifi_Intr_CntOverflow
                0x037f8dec                Wifi_Intr_StartTx
                0x037f8e00                Wifi_Intr_TxEnd
                0x037f8f28                Wifi_Intr_TBTT
                0x037f8f40                Wifi_Intr_DoNothing
                0x037f8f44                erasemem
                0x037f8f64                Wifi_Deinit
                0x037f8fe8                Wifi_Start
                0x037f91b0                Wifi_Stop
                0x037f9218                Wifi_SetWepKey
                0x037f927c                Wifi_SetWepMode
                0x037f92c0                Wifi_SetBeaconPeriod
                0x037f92dc                Wifi_SetMode
                0x037f9304                Wifi_SetPreambleType
                0x037f9330                Wifi_DisableTempPowerSave
                0x037f9358                Wifi_TxQueue
                0x037f944c                Wifi_GenMgtHeader
                0x037f9534                Wifi_SendOpenSystemAuthPacket
                0x037f9590                Wifi_SendSharedKeyAuthPacket
                0x037f95ec                Wifi_SendSharedKeyAuthPacket2
                0x037f9698                Wifi_SendAssocPacket
                0x037f9890                Wifi_SendNullFrame
                0x037f9920                Wifi_SendPSPollFrame
                0x037f99c0                Wifi_CreateTxFrame
                0x037f99c8                Wifi_SetSyncHandler
                0x037f99d8                installWifiFIFO
                0x037f9a48                Wifi_ProcessReceivedFrame
                0x037fa80c                Wifi_Intr_RxEnd
                0x037fa98c                Wifi_Interrupt
                0x037faad4                Wifi_SetChannel
                0x037fad7c                Wifi_Update
                0x037fb460                Wifi_Sync
                0x037fb4a8                Wifi_WakeUp
                0x037fb53c                GetWfcSettings
                0x037fb6fc                InitFlashData
                0x037fb71c                Wifi_Init
 .text          0x037fb960       0x5c /home/sl/Code/School/CMPSC483W/zoidbergengine/cb_project_linux/../devkitpro/libnds/lib/libdswifi7.a(spinlock.o)
                0x037fb960                SLasm_Acquire
                0x037fb994                SLasm_Release
 .text          0x037fb9bc      0x1f8 /home/sl/Code/School/CMPSC483W/zoidbergengine/cb_project_linux/../devkitpro/libnds/lib/libmm7.a(mm_main.o)
                0x037fb9bc                mpp_call_r7
                0x037fb9be                mpp_call_r1
                0x037fb9c0                mpp_call_r2
                0x037fb9c2                mpp_call_r3
                0x037fb9c4                mmSetEventHandler
                0x037fb9ca                mmLockChannels
                0x037fba54                mmUnlockChannels
                0x037fba68                mmSuspendIRQ_t
                0x037fba84                mmRestoreIRQ_t
                0x037fbaa4                mmIsInitialized
                0x037fbaaa                mmInit7
                0x037fbb0c                mmInstall
                0x037fbb2c                mmGetSoundBank
                0x037fbb38                mmFrame
 .text          0x037fbbb4     0x1b54 /home/sl/Code/School/CMPSC483W/zoidbergengine/cb_project_linux/../devkitpro/libnds/lib/libmm7.a(mm_mas.o)
                0x037fbc04                mm_reset_channels
                0x037fbc5a                mmStart
                0x037fbc6e                mmJingle
                0x037fbc74                mmPlayModule
                0x037fbd38                mmPause
                0x037fbd54                mmResume
                0x037fbd64                mmActive
                0x037fbd6a                mmActiveSub
                0x037fbd70                mmSetModuleVolume
                0x037fbd80                mmSetJingleVolume
                0x037fbdbc                mmPosition
                0x037fbdd6                mmSetModuleTempo
                0x037fbe08                mmSetModulePitch
                0x037fbe48                mmSetResolution
                0x037fbe78                mmStop
                0x037fbf60                mmPulse
                0x037fbfc0                mppProcessTick
                0x037fc13c                mpp_Channel_NewNote
                0x037fc244                mpp_Update_ACHN_notest
                0x037fc642                mpp_Process_VolumeCommand
                0x037fc87a                mpp_Process_Effect
                0x037fcfc8                ST3_FREQTABLE
                0x037fd3e8                IT_PitchTable
 .text          0x037fd708      0x648 /home/sl/Code/School/CMPSC483W/zoidbergengine/cb_project_linux/../devkitpro/libnds/lib/libmm7.a(mm_mas_arm.o)
                0x037fd708                mmAllocChannel
                0x037fd77c                mmReadPattern
                0x037fd868                mmUpdateChannel_T0
                0x037fdaa8                mmUpdateChannel_TN
                0x037fdc48                mmGetPeriod
                0x037fdc8c                note_table_oct
                0x037fdcaa                note_table_mod
 .text          0x037fdd50      0x7ec /home/sl/Code/School/CMPSC483W/zoidbergengine/cb_project_linux/../devkitpro/libnds/lib/libmm7.a(mm_comms7.o)
                0x037fdd50                mmSetupComms
                0x037fde70                mmSendUpdateToARM9
                0x037fdea4                mmARM9msg
                0x037fdee4                mmProcessComms
 .text          0x037fe53c     0x1688 /home/sl/Code/School/CMPSC483W/zoidbergengine/cb_project_linux/../devkitpro/libnds/lib/libmm7.a(mm_mixer_super.o)
                0x037fe5bc                mmMixerPre
                0x037fe690                mmMixerMix
                0x037ff1dc                mmVolumeTable
                0x037ff952                mmMixerSetSource
                0x037ff968                mmMixerSetFreq
                0x037ff988                mmMixerMulFreq
                0x037ff9a2                mmMixerStopChannel
                0x037ff9ac                mmMixerChannelActive
                0x037ff9b6                mmMixerSetVolume
                0x037ff9be                mmMixerSetPan
                0x037ff9d0                mmMixerInit
                0x037ff9d2                mmSelectMode
 .text          0x037ffbc4      0x280 /home/sl/Code/School/CMPSC483W/zoidbergengine/cb_project_linux/../devkitpro/libnds/lib/libmm7.a(mm_reverb.o)
                0x037ffbc4                mmReverbEnable
                0x037ffbe2                mmReverbDisable
                0x037ffc26                mmReverbConfigure
                0x037ffd88                mmReverbStart
                0x037ffdd0                mmReverbStop
 .text          0x037ffe44      0x428 /home/sl/Code/School/CMPSC483W/zoidbergengine/cb_project_linux/../devkitpro/libnds/lib/libmm7.a(mm_stream.o)
                0x037ffe44                mmStreamOpen
                0x037fff24                mmStreamGetPosition
                0x037fff5e                mmStreamUpdate
                0x03800140                mmStreamClose
                0x03800176                mmStreamBegin
                0x0380020c                mmStreamEnd
 .text          0x0380026c      0x314 /home/sl/Code/School/CMPSC483W/zoidbergengine/cb_project_linux/../devkitpro/libnds/lib/libmm7.a(mm_effect.o)
                0x0380026c                mmResetEffects
                0x03800298                mmEffect
                0x038002ae                mmEffectEx
                0x038003de                mmEffectVolume
                0x038003fa                mmEffectPanning
                0x0380040e                mmEffectRate
                0x03800422                mmEffectCancel
                0x0380045c                mmEffectRelease
                0x03800482                mmEffectScaleRate
                0x03800496                mmSetEffectsVolume
                0x038004a4                mmEffectCancelAll
                0x038004e4                mmUpdateEffects
 .text          0x03800580      0x3c4 /home/sl/Code/School/CMPSC483W/zoidbergengine/cb_project_linux/../devkitpro/libnds/lib/libnds7.a(audio.o)
                0x03800580                getFreeChannel
                0x038005a4                getFreePSGChannel
                0x038005c8                getFreeNoiseChannel
                0x038005f4                installSoundFIFO
                0x03800618                disableSound
                0x0380065c                enableSound
                0x038006a0                soundCommandHandler
                0x038007b8                soundDataHandler
                0x03800924                micSwapHandler
 .text          0x03800944      0x430 /home/sl/Code/School/CMPSC483W/zoidbergengine/cb_project_linux/../devkitpro/libnds/lib/libnds7.a(clock.o)
                0x03800944                BCDToInteger
                0x03800968                syncRTC
                0x03800978                rtcTransaction
                0x03800a78                rtcSetTime
                0x03800aa0                rtcGetTime
                0x03800b00                rtcSetTimeAndDate
                0x03800b30                rtcGetTimeAndDate
                0x03800b90                resyncClock
                0x03800c78                rtcReset
                0x03800cb8                initClockIRQ
                0x03800d40                integerToBCD
 .text          0x03800d74       0xa8 /home/sl/Code/School/CMPSC483W/zoidbergengine/cb_project_linux/../devkitpro/libnds/lib/libnds7.a(input.o)
                0x03800d74                inputGetAndSend
 .text          0x03800e1c      0x288 /home/sl/Code/School/CMPSC483W/zoidbergengine/cb_project_linux/../devkitpro/libnds/lib/libnds7.a(microphone.o)
                0x03800e3c                micReadData12
                0x03800e9c                micReadData8
                0x03800ef8                micTimerHandler
                0x03800f70                micSetAmp
                0x03800fc8                micStopRecording
                0x03801020                micStartRecording
 .text          0x038010a4      0x108 /home/sl/Code/School/CMPSC483W/zoidbergengine/cb_project_linux/../devkitpro/libnds/lib/libnds7.a(spi.o)
                0x038010a4                writePowerManagement
                0x0380110c                readFirmware
 .text          0x038011ac      0x130 /home/sl/Code/School/CMPSC483W/zoidbergengine/cb_project_linux/../devkitpro/libnds/lib/libnds7.a(system.o)
                0x038011ac                sleepEnabled
                0x038011b8                installSystemFIFO
                0x038011d0                systemSleep
                0x03801200                powerValueHandler
 .text          0x038012dc      0x598 /home/sl/Code/School/CMPSC483W/zoidbergengine/cb_project_linux/../devkitpro/libnds/lib/libnds7.a(touch.o)
                0x038012dc                UpdateRange
                0x03801364                readTouchValue
                0x038014e0                touchRead
                0x0380154c                touchReadTemperature
                0x0380157c                CheckStylus
                0x03801610                touchReadXY
 .text          0x03801874       0xe8 /home/sl/Code/School/CMPSC483W/zoidbergengine/cb_project_linux/../devkitpro/libnds/lib/libnds7.a(userSettings.o)
                0x03801874                readUserSettings
 .text          0x0380195c      0xc0c /home/sl/Code/School/CMPSC483W/zoidbergengine/cb_project_linux/../devkitpro/libnds/lib/libnds7.a(fifosystem.o)
                0x03801abc                fifoSendAddress
                0x03801af8                fifoSendValue32
                0x03801b3c                fifoGetAddress
                0x03801bac                fifoSetAddressHandler
                0x03801c1c                fifoGetValue32
                0x03801c8c                fifoSetValue32Handler
                0x03801cfc                fifoCheckAddress
                0x03801d20                fifoCheckDatamsg
                0x03801d44                fifoCheckValue32
                0x03801df8                fifoInit
                0x03801f88                fifoGetDatamsg
                0x0380245c                fifoSetDatamsgHandler
                0x038024f0                fifoSendDatamsg
 .text          0x03802568      0x1f4 /home/sl/Code/School/CMPSC483W/zoidbergengine/cb_project_linux/../devkitpro/libnds/lib/libnds7.a(interrupts.o)
                0x03802568                irqDummy
                0x0380256c                irqSet
                0x038025e0                irqInit
                0x03802630                irqInitHandler
                0x03802664                irqEnable
                0x038026c4                irqDisable
                0x03802728                irqClear
 .text          0x0380275c        0x4 /home/sl/Code/School/CMPSC483W/zoidbergengine/cb_project_linux/../devkitpro/libnds/lib/libnds7.a(libnds_exit.o)
                0x0380275c                __libnds_exit
 .text          0x03802760       0x80 /home/sl/Code/School/CMPSC483W/zoidbergengine/cb_project_linux/../devkitpro/libnds/lib/libnds7.a(biosCalls.o)
                0x03802760                swiSoftReset
                0x03802764                swiDelay
                0x03802768                swiIntrWait
                0x0380276c                swiWaitForVBlank
                0x03802770                swiSleep
                0x03802774                swiChangeSoundBias
                0x03802778                swiDivide
                0x0380277c                swiRemainder
                0x03802782                swiDivMod
                0x0380278e                swiCopy
                0x03802792                swiFastCopy
                0x03802796                swiSqrt
                0x0380279a                swiCRC16
                0x0380279e                swiIsDebugger
                0x038027a2                swiUnpackBits
                0x038027a6                swiDecompressLZSSWram
                0x038027aa                swiDecompressLZSSVram
                0x038027ae                swiDecompressHuffman
                0x038027b2                swiDecompressRLEWram
                0x038027b6                swiDecompressRLEVram
                0x038027ba                swiHalt
                0x038027be                swiGetSineTable
                0x038027c2                swiGetPitchTable
                0x038027c6                swiGetVolumeTable
                0x038027ca                swiSwitchToGBAMode
                0x038027ce                swiSetHaltCR
 .text          0x038027e0       0xc8 /home/sl/Code/School/CMPSC483W/zoidbergengine/cb_project_linux/../devkitpro/libnds/lib/libnds7.a(interruptDispatcher.o)
                0x038027e0                IntrMain
 .text          0x038028a8      0x144 /home/sl/Code/School/CMPSC483W/zoidbergengine/devkitpro/devkitARM/bin/../lib/gcc/arm-eabi/4.4.2/libgcc.a(_divsi3.o)
                0x038028a8                __aeabi_idiv
                0x038028a8                __divsi3
                0x038029d4                __aeabi_idivmod
 .text          0x038029ec        0x4 /home/sl/Code/School/CMPSC483W/zoidbergengine/devkitpro/devkitARM/bin/../lib/gcc/arm-eabi/4.4.2/libgcc.a(_dvmd_tls.o)
                0x038029ec                __aeabi_ldiv0
                0x038029ec                __div0
                0x038029ec                __aeabi_idiv0
 .text          0x038029f0       0x3c /home/sl/Code/School/CMPSC483W/zoidbergengine/devkitpro/devkitARM/bin/../lib/gcc/arm-eabi/4.4.2/libgcc.a(_call_via_rX.o)
                0x038029f0                _call_via_r0
                0x038029f4                _call_via_r1
                0x038029f8                _call_via_r2
                0x038029fc                _call_via_r3
                0x03802a00                _call_via_r4
                0x03802a04                _call_via_r5
                0x03802a08                _call_via_r6
                0x03802a0c                _call_via_r7
                0x03802a10                _call_via_r8
                0x03802a14                _call_via_r9
                0x03802a18                _call_via_sl
                0x03802a1c                _call_via_fp
                0x03802a20                _call_via_ip
                0x03802a24                _call_via_sp
                0x03802a28                _call_via_lr
 .text          0x03802a2c       0xc8 /home/sl/Code/School/CMPSC483W/zoidbergengine/devkitpro/devkitARM/bin/../lib/gcc/arm-eabi/4.4.2/../../../../arm-eabi/lib/libg.a(lib_a-init.o)
                0x03802a2c                __libc_fini_array
                0x03802a74                __libc_init_array
 .text          0x03802af4       0xf0 /home/sl/Code/School/CMPSC483W/zoidbergengine/devkitpro/devkitARM/bin/../lib/gcc/arm-eabi/4.4.2/../../../../arm-eabi/lib/libg.a(lib_a-memcpy.o)
                0x03802af4                memcpy
 .text          0x03802be4       0xf8 /home/sl/Code/School/CMPSC483W/zoidbergengine/devkitpro/devkitARM/bin/../lib/gcc/arm-eabi/4.4.2/../../../../arm-eabi/lib/libg.a(lib_a-memset.o)
                0x03802be4                memset
 .text          0x03802cdc        0x0 /home/sl/Code/School/CMPSC483W/zoidbergengine/devkitpro/devkitARM/bin/../lib/gcc/arm-eabi/4.4.2/crtend.o
 .text          0x03802cdc        0x0 /home/sl/Code/School/CMPSC483W/zoidbergengine/devkitpro/devkitARM/bin/../lib/gcc/arm-eabi/4.4.2/crtn.o
 *fill*         0x03802cdc        0x4 ff
 .text.stub     0x03802ce0      0x14c linker stubs
 *(.text.*personality*)
 *(.gnu.warning)
 *(.glue_7t)
 .glue_7t       0x00000000        0x0 linker stubs
 *(.glue_7)
 .glue_7        0x00000000        0x0 linker stubs
 *(.vfp11_veneer)
 .vfp11_veneer  0x00000000        0x0 linker stubs
                0x03802e2c                . = ALIGN (0x4)

.v4_bx          0x00000000        0x0
 .v4_bx         0x00000000        0x0 linker stubs

.fini           0x03802e80       0x18
 *(.fini)
 .fini          0x03802e80        0xc /home/sl/Code/School/CMPSC483W/zoidbergengine/devkitpro/devkitARM/bin/../lib/gcc/arm-eabi/4.4.2/crti.o
                0x03802e80                _fini
 .fini          0x03802e8c        0xc /home/sl/Code/School/CMPSC483W/zoidbergengine/devkitpro/devkitARM/bin/../lib/gcc/arm-eabi/4.4.2/crtn.o
                0x03802e98                __text_end = .

.rodata         0x03802e98       0x1c
 *(.rodata)
 .rodata        0x03802e98       0x1c /home/sl/Code/School/CMPSC483W/zoidbergengine/cb_project_linux/../devkitpro/libnds/lib/libnds7.a(clock.o)
 *all.rodata*(*)
 *(.roda)
 *(.rodata.*)
 *(.gnu.linkonce.r*)
                0x03802eb4                . = ALIGN (0x4)

.ARM.extab
 *(.ARM.extab* .gnu.linkonce.armextab.*)
                0x03802eb4                __exidx_start = .

.ARM.exidx
 *(.ARM.exidx* .gnu.linkonce.armexidx.*)
                0x03802eb4                __exidx_end = .
                0x03802eb4                . = ALIGN (0x4)
                0x03802eb4                PROVIDE (__preinit_array_start, .)

.preinit_array
 *(.preinit_array)
                0x03802eb4                PROVIDE (__preinit_array_end, .)
                0x03802eb4                PROVIDE (__init_array_start, .)

.init_array     0x03802eb4        0x4
 *(.init_array)
 .init_array    0x03802eb4        0x4 /home/sl/Code/School/CMPSC483W/zoidbergengine/devkitpro/devkitARM/bin/../lib/gcc/arm-eabi/4.4.2/crtbegin.o
                0x03802eb8                PROVIDE (__init_array_end, .)
                0x03802eb8                PROVIDE (__fini_array_start, .)

.fini_array     0x03802eb8        0x4
 *(.fini_array)
 .fini_array    0x03802eb8        0x4 /home/sl/Code/School/CMPSC483W/zoidbergengine/devkitpro/devkitARM/bin/../lib/gcc/arm-eabi/4.4.2/crtbegin.o
                0x03802ebc                PROVIDE (__fini_array_end, .)

.ctors          0x03802ebc        0x0
 *crtbegin.o(.ctors)
 *(EXCLUDE_FILE(*crtend.o) .ctors)
 *(SORT(.ctors.*))
 *(.ctors)
                0x03802ebc                . = ALIGN (0x4)

.dtors          0x03802ebc        0x0
 *crtbegin.o(.dtors)
 *(EXCLUDE_FILE(*crtend.o) .dtors)
 *(SORT(.dtors.*))
 *(.dtors)
                0x03802ebc                . = ALIGN (0x4)

.eh_frame       0x03802ebc        0x4
 *(.eh_frame)
 .eh_frame      0x03802ebc        0x0 /home/sl/Code/School/CMPSC483W/zoidbergengine/devkitpro/devkitARM/bin/../lib/gcc/arm-eabi/4.4.2/crtbegin.o
 .eh_frame      0x03802ebc        0x4 /home/sl/Code/School/CMPSC483W/zoidbergengine/devkitpro/devkitARM/bin/../lib/gcc/arm-eabi/4.4.2/crtend.o
                0x03802ec0                . = ALIGN (0x4)

.gcc_except_table
                0x03802ec0        0x0
 *(.gcc_except_table)
                0x03802ec0                . = ALIGN (0x4)

.jcr            0x03802ec0        0x4
 *(.jcr)
 .jcr           0x03802ec0        0x0 /home/sl/Code/School/CMPSC483W/zoidbergengine/devkitpro/devkitARM/bin/../lib/gcc/arm-eabi/4.4.2/crtbegin.o
 .jcr           0x03802ec0        0x4 /home/sl/Code/School/CMPSC483W/zoidbergengine/devkitpro/devkitARM/bin/../lib/gcc/arm-eabi/4.4.2/crtend.o

.got
 *(.got.plt)
 *(.got)

.iwram          0x03802ec4        0x0
                0x03802ec4                __iwram_start = ABSOLUTE (.)
 *(.iwram)
 *iwram.*(.text)
                0x03802ec4                . = ALIGN (0x4)
                0x03802ec4                __iwram_end = ABSOLUTE (.)

.data           0x03802ec4      0x12c
                0x03802ec4                __data_start = ABSOLUTE (.)
 *(.data)
 .data          0x03802ec4        0x0 /home/sl/Code/School/CMPSC483W/zoidbergengine/devkitpro/devkitARM/bin/../lib/gcc/arm-eabi/4.4.2/../../../../arm-eabi/lib/ds_arm7_crt0.o
 .data          0x03802ec4        0x0 /home/sl/Code/School/CMPSC483W/zoidbergengine/devkitpro/devkitARM/bin/../lib/gcc/arm-eabi/4.4.2/crti.o
 .data          0x03802ec4        0x4 /home/sl/Code/School/CMPSC483W/zoidbergengine/devkitpro/devkitARM/bin/../lib/gcc/arm-eabi/4.4.2/crtbegin.o
                0x03802ec4                __dso_handle
 .data          0x03802ec8        0x0 main.o
 .data          0x03802ec8      0x114 /home/sl/Code/School/CMPSC483W/zoidbergengine/cb_project_linux/../devkitpro/libnds/lib/libdswifi7.a(wifi_arm7.o)
                0x03802ec8                RF_Reglist
                0x03802f08                MAC_Reglist
                0x03802f60                MAC_Vallist
                0x03802fb8                count_ofs_list
 .data          0x03802fdc        0x0 /home/sl/Code/School/CMPSC483W/zoidbergengine/cb_project_linux/../devkitpro/libnds/lib/libdswifi7.a(spinlock.o)
 .data          0x03802fdc        0x0 /home/sl/Code/School/CMPSC483W/zoidbergengine/cb_project_linux/../devkitpro/libnds/lib/libmm7.a(mm_main.o)
 .data          0x03802fdc        0x0 /home/sl/Code/School/CMPSC483W/zoidbergengine/cb_project_linux/../devkitpro/libnds/lib/libmm7.a(mm_mas.o)
 .data          0x03802fdc        0x0 /home/sl/Code/School/CMPSC483W/zoidbergengine/cb_project_linux/../devkitpro/libnds/lib/libmm7.a(mm_mas_arm.o)
 .data          0x03802fdc        0x0 /home/sl/Code/School/CMPSC483W/zoidbergengine/cb_project_linux/../devkitpro/libnds/lib/libmm7.a(mm_comms7.o)
 .data          0x03802fdc        0x0 /home/sl/Code/School/CMPSC483W/zoidbergengine/cb_project_linux/../devkitpro/libnds/lib/libmm7.a(mm_mixer_super.o)
 .data          0x03802fdc        0x0 /home/sl/Code/School/CMPSC483W/zoidbergengine/cb_project_linux/../devkitpro/libnds/lib/libmm7.a(mm_reverb.o)
 .data          0x03802fdc        0x0 /home/sl/Code/School/CMPSC483W/zoidbergengine/cb_project_linux/../devkitpro/libnds/lib/libmm7.a(mm_stream.o)
 .data          0x03802fdc        0x0 /home/sl/Code/School/CMPSC483W/zoidbergengine/cb_project_linux/../devkitpro/libnds/lib/libmm7.a(mm_effect.o)
 .data          0x03802fdc        0x0 /home/sl/Code/School/CMPSC483W/zoidbergengine/cb_project_linux/../devkitpro/libnds/lib/libnds7.a(audio.o)
 .data          0x03802fdc        0x0 /home/sl/Code/School/CMPSC483W/zoidbergengine/cb_project_linux/../devkitpro/libnds/lib/libnds7.a(clock.o)
 .data          0x03802fdc        0x0 /home/sl/Code/School/CMPSC483W/zoidbergengine/cb_project_linux/../devkitpro/libnds/lib/libnds7.a(input.o)
 .data          0x03802fdc        0x1 /home/sl/Code/School/CMPSC483W/zoidbergengine/cb_project_linux/../devkitpro/libnds/lib/libnds7.a(microphone.o)
 .data          0x03802fdd        0x0 /home/sl/Code/School/CMPSC483W/zoidbergengine/cb_project_linux/../devkitpro/libnds/lib/libnds7.a(spi.o)
 .data          0x03802fdd        0x1 /home/sl/Code/School/CMPSC483W/zoidbergengine/cb_project_linux/../devkitpro/libnds/lib/libnds7.a(system.o)
                0x03802fdd                sleepIsEnabled
 .data          0x03802fde        0x1 /home/sl/Code/School/CMPSC483W/zoidbergengine/cb_project_linux/../devkitpro/libnds/lib/libnds7.a(touch.o)
 .data          0x03802fdf        0x0 /home/sl/Code/School/CMPSC483W/zoidbergengine/cb_project_linux/../devkitpro/libnds/lib/libnds7.a(userSettings.o)
 *fill*         0x03802fdf        0x1 ff
 .data          0x03802fe0       0x10 /home/sl/Code/School/CMPSC483W/zoidbergengine/cb_project_linux/../devkitpro/libnds/lib/libnds7.a(fifosystem.o)
                0x03802fe0                fifo_freewords
                0x03802fe4                fifo_send_queue
                0x03802fe8                fifo_buffer_free
                0x03802fec                fifo_receive_queue
 .data          0x03802ff0        0x0 /home/sl/Code/School/CMPSC483W/zoidbergengine/cb_project_linux/../devkitpro/libnds/lib/libnds7.a(interrupts.o)
 .data          0x03802ff0        0x0 /home/sl/Code/School/CMPSC483W/zoidbergengine/cb_project_linux/../devkitpro/libnds/lib/libnds7.a(libnds_exit.o)
 .data          0x03802ff0        0x0 /home/sl/Code/School/CMPSC483W/zoidbergengine/cb_project_linux/../devkitpro/libnds/lib/libnds7.a(biosCalls.o)
 .data          0x03802ff0        0x0 /home/sl/Code/School/CMPSC483W/zoidbergengine/cb_project_linux/../devkitpro/libnds/lib/libnds7.a(interruptDispatcher.o)
 .data          0x03802ff0        0x0 /home/sl/Code/School/CMPSC483W/zoidbergengine/devkitpro/devkitARM/bin/../lib/gcc/arm-eabi/4.4.2/libgcc.a(_divsi3.o)
 .data          0x03802ff0        0x0 /home/sl/Code/School/CMPSC483W/zoidbergengine/devkitpro/devkitARM/bin/../lib/gcc/arm-eabi/4.4.2/libgcc.a(_dvmd_tls.o)
 .data          0x03802ff0        0x0 /home/sl/Code/School/CMPSC483W/zoidbergengine/devkitpro/devkitARM/bin/../lib/gcc/arm-eabi/4.4.2/libgcc.a(_call_via_rX.o)
 .data          0x03802ff0        0x0 /home/sl/Code/School/CMPSC483W/zoidbergengine/devkitpro/devkitARM/bin/../lib/gcc/arm-eabi/4.4.2/../../../../arm-eabi/lib/libg.a(lib_a-init.o)
 .data          0x03802ff0        0x0 /home/sl/Code/School/CMPSC483W/zoidbergengine/devkitpro/devkitARM/bin/../lib/gcc/arm-eabi/4.4.2/../../../../arm-eabi/lib/libg.a(lib_a-memcpy.o)
 .data          0x03802ff0        0x0 /home/sl/Code/School/CMPSC483W/zoidbergengine/devkitpro/devkitARM/bin/../lib/gcc/arm-eabi/4.4.2/../../../../arm-eabi/lib/libg.a(lib_a-memset.o)
 .data          0x03802ff0        0x0 /home/sl/Code/School/CMPSC483W/zoidbergengine/devkitpro/devkitARM/bin/../lib/gcc/arm-eabi/4.4.2/crtend.o
 .data          0x03802ff0        0x0 /home/sl/Code/School/CMPSC483W/zoidbergengine/devkitpro/devkitARM/bin/../lib/gcc/arm-eabi/4.4.2/crtn.o
 *(.data.*)
 *(.gnu.linkonce.d*)
                0x03802ff0                . = ALIGN (0x4)
                0x03802ff0                __data_end = ABSOLUTE (.)

.bss            0x03802ff0     0x403c
                0x03802ff0                __bss_start = ABSOLUTE (.)
                0x03802ff0                __bss_start__ = ABSOLUTE (.)
 *(.dynbss)
 *(.gnu.linkonce.b*)
 *(.bss*)
 .bss           0x03802ff0        0x0 /home/sl/Code/School/CMPSC483W/zoidbergengine/devkitpro/devkitARM/bin/../lib/gcc/arm-eabi/4.4.2/../../../../arm-eabi/lib/ds_arm7_crt0.o
 .bss           0x03802ff0        0x0 /home/sl/Code/School/CMPSC483W/zoidbergengine/devkitpro/devkitARM/bin/../lib/gcc/arm-eabi/4.4.2/crti.o
 .bss           0x03802ff0       0x1c /home/sl/Code/School/CMPSC483W/zoidbergengine/devkitpro/devkitARM/bin/../lib/gcc/arm-eabi/4.4.2/crtbegin.o
 .bss           0x0380300c        0x0 main.o
 .bss           0x0380300c       0x18 /home/sl/Code/School/CMPSC483W/zoidbergengine/cb_project_linux/../devkitpro/libnds/lib/libdswifi7.a(wifi_arm7.o)
                0x0380300c                led_state
                0x03803010                WifiData
                0x03803014                chdata_save5
                0x03803018                synchandler
                0x0380301c                arm7qlen
                0x03803020                keepalive_time
 .bss           0x03803024        0x0 /home/sl/Code/School/CMPSC483W/zoidbergengine/cb_project_linux/../devkitpro/libnds/lib/libdswifi7.a(spinlock.o)
 .bss           0x03803024      0x89c /home/sl/Code/School/CMPSC483W/zoidbergengine/cb_project_linux/../devkitpro/libnds/lib/libmm7.a(mm_main.o)
                0x03803024                mmCallback
                0x03803028                mmModuleCount
                0x0380302c                mmModuleBank
                0x03803030                mmSampleBank
                0x03803034                mm_ch_mask
                0x03803038                mm_vblank_function
                0x038038bc                mmInitialized
 .bss           0x038038c0      0x148 /home/sl/Code/School/CMPSC483W/zoidbergengine/cb_project_linux/../devkitpro/libnds/lib/libmm7.a(mm_mas.o)
                0x038038c0                mmLayerMain
                0x038038f8                mmLayerSub
                0x03803930                mpp_vars
                0x03803940                mpp_layerp
                0x03803944                mpp_channels
                0x03803954                mpp_nchannels
                0x03803955                mpp_clayer
                0x03803958                mm_achannels
                0x0380395c                mm_pchannels
                0x03803960                mm_num_mch
                0x03803964                mm_num_ach
                0x03803968                mm_schannels
 .bss           0x03803a08        0x0 /home/sl/Code/School/CMPSC483W/zoidbergengine/cb_project_linux/../devkitpro/libnds/lib/libmm7.a(mm_mas_arm.o)
 .bss           0x03803a08      0x10c /home/sl/Code/School/CMPSC483W/zoidbergengine/cb_project_linux/../devkitpro/libnds/lib/libmm7.a(mm_comms7.o)
 .bss           0x03803b14     0x2364 /home/sl/Code/School/CMPSC483W/zoidbergengine/cb_project_linux/../devkitpro/libnds/lib/libmm7.a(mm_mixer_super.o)
                0x03803b14                mm_mix_channels
                0x03805e75                mm_mixing_mode
 .bss           0x03805e78        0x8 /home/sl/Code/School/CMPSC483W/zoidbergengine/cb_project_linux/../devkitpro/libnds/lib/libmm7.a(mm_reverb.o)
 .bss           0x03805e80       0x2c /home/sl/Code/School/CMPSC483W/zoidbergengine/cb_project_linux/../devkitpro/libnds/lib/libmm7.a(mm_stream.o)
 .bss           0x03805eac       0x30 /home/sl/Code/School/CMPSC483W/zoidbergengine/cb_project_linux/../devkitpro/libnds/lib/libmm7.a(mm_effect.o)
                0x03805ed0                mm_sfx_bitmask
                0x03805ed4                mm_sfx_clearmask
 .bss           0x03805edc        0x0 /home/sl/Code/School/CMPSC483W/zoidbergengine/cb_project_linux/../devkitpro/libnds/lib/libnds7.a(audio.o)
 .bss           0x03805edc        0x0 /home/sl/Code/School/CMPSC483W/zoidbergengine/cb_project_linux/../devkitpro/libnds/lib/libnds7.a(clock.o)
 .bss           0x03805edc        0x8 /home/sl/Code/School/CMPSC483W/zoidbergengine/cb_project_linux/../devkitpro/libnds/lib/libnds7.a(input.o)
 .bss           0x03805ee4       0x20 /home/sl/Code/School/CMPSC483W/zoidbergengine/cb_project_linux/../devkitpro/libnds/lib/libnds7.a(microphone.o)
 .bss           0x03805f04        0x0 /home/sl/Code/School/CMPSC483W/zoidbergengine/cb_project_linux/../devkitpro/libnds/lib/libnds7.a(spi.o)
 .bss           0x03805f04        0x0 /home/sl/Code/School/CMPSC483W/zoidbergengine/cb_project_linux/../devkitpro/libnds/lib/libnds7.a(system.o)
 .bss           0x03805f04       0x14 /home/sl/Code/School/CMPSC483W/zoidbergengine/cb_project_linux/../devkitpro/libnds/lib/libnds7.a(touch.o)
 .bss           0x03805f18        0x0 /home/sl/Code/School/CMPSC483W/zoidbergengine/cb_project_linux/../devkitpro/libnds/lib/libnds7.a(userSettings.o)
 .bss           0x03805f18        0x8 /home/sl/Code/School/CMPSC483W/zoidbergengine/cb_project_linux/../devkitpro/libnds/lib/libnds7.a(fifosystem.o)
                0x03805f1c                processing
 .bss           0x03805f20        0x0 /home/sl/Code/School/CMPSC483W/zoidbergengine/cb_project_linux/../devkitpro/libnds/lib/libnds7.a(interrupts.o)
 .bss           0x03805f20        0x0 /home/sl/Code/School/CMPSC483W/zoidbergengine/cb_project_linux/../devkitpro/libnds/lib/libnds7.a(libnds_exit.o)
 .bss           0x03805f20        0x0 /home/sl/Code/School/CMPSC483W/zoidbergengine/cb_project_linux/../devkitpro/libnds/lib/libnds7.a(biosCalls.o)
 .bss           0x03805f20        0x0 /home/sl/Code/School/CMPSC483W/zoidbergengine/cb_project_linux/../devkitpro/libnds/lib/libnds7.a(interruptDispatcher.o)
 .bss           0x03805f20        0x0 /home/sl/Code/School/CMPSC483W/zoidbergengine/devkitpro/devkitARM/bin/../lib/gcc/arm-eabi/4.4.2/libgcc.a(_divsi3.o)
 .bss           0x03805f20        0x0 /home/sl/Code/School/CMPSC483W/zoidbergengine/devkitpro/devkitARM/bin/../lib/gcc/arm-eabi/4.4.2/libgcc.a(_dvmd_tls.o)
 .bss           0x03805f20        0x0 /home/sl/Code/School/CMPSC483W/zoidbergengine/devkitpro/devkitARM/bin/../lib/gcc/arm-eabi/4.4.2/libgcc.a(_call_via_rX.o)
 .bss           0x03805f20        0x0 /home/sl/Code/School/CMPSC483W/zoidbergengine/devkitpro/devkitARM/bin/../lib/gcc/arm-eabi/4.4.2/../../../../arm-eabi/lib/libg.a(lib_a-init.o)
 .bss           0x03805f20        0x0 /home/sl/Code/School/CMPSC483W/zoidbergengine/devkitpro/devkitARM/bin/../lib/gcc/arm-eabi/4.4.2/../../../../arm-eabi/lib/libg.a(lib_a-memcpy.o)
 .bss           0x03805f20        0x0 /home/sl/Code/School/CMPSC483W/zoidbergengine/devkitpro/devkitARM/bin/../lib/gcc/arm-eabi/4.4.2/../../../../arm-eabi/lib/libg.a(lib_a-memset.o)
 .bss           0x03805f20        0x0 /home/sl/Code/School/CMPSC483W/zoidbergengine/devkitpro/devkitARM/bin/../lib/gcc/arm-eabi/4.4.2/crtend.o
 .bss           0x03805f20        0x0 /home/sl/Code/School/CMPSC483W/zoidbergengine/devkitpro/devkitARM/bin/../lib/gcc/arm-eabi/4.4.2/crtn.o
 *(COMMON)
 COMMON         0x03805f20      0xa00 /home/sl/Code/School/CMPSC483W/zoidbergengine/cb_project_linux/../devkitpro/libnds/lib/libdswifi7.a(wifi_arm7.o)
                0x03805f20                arm7q
                0x03806720                FlashData
 COMMON         0x03806920        0x1 /home/sl/Code/School/CMPSC483W/zoidbergengine/cb_project_linux/../devkitpro/libnds/lib/libnds7.a(input.o)
                0x03806920                Keys
 *fill*         0x03806921        0x3 00
 COMMON         0x03806924      0x640 /home/sl/Code/School/CMPSC483W/zoidbergengine/cb_project_linux/../devkitpro/libnds/lib/libnds7.a(fifosystem.o)
                0x03806924                fifo_datamsg_data
                0x03806964                fifo_buffer
                0x03806d64                fifo_value32_func
                0x03806da4                fifo_address_func
                0x03806de4                fifo_value32_data
                0x03806e24                fifo_value32_queue
                0x03806e64                fifo_data_queue
                0x03806ea4                fifo_address_data
                0x03806ee4                fifo_datamsg_func
                0x03806f24                fifo_address_queue
 COMMON         0x03806f64       0xc8 /home/sl/Code/School/CMPSC483W/zoidbergengine/cb_project_linux/../devkitpro/libnds/lib/libnds7.a(interrupts.o)
                0x03806f64                irqTable
                0x0380702c                . = ALIGN (0x4)
                0x0380702c                __bss_end = .
                0x0380702c                __bss_end__ = .
                0x0380702c                _end = .
                0x0380702c                __end__ = .
                0x0380702c                PROVIDE (end, _end)

.stab
 *(.stab)

.stabstr
 *(.stabstr)

.stab.excl
 *(.stab.excl)

.stab.exclstr
 *(.stab.exclstr)

.stab.index
 *(.stab.index)

.stab.indexstr
 *(.stab.indexstr)

.ARM.attributes
                0x00000000       0x2c
 .ARM.attributes
                0x00000000       0x20 /home/sl/Code/School/CMPSC483W/zoidbergengine/devkitpro/devkitARM/bin/../lib/gcc/arm-eabi/4.4.2/../../../../arm-eabi/lib/ds_arm7_crt0.o
 .ARM.attributes
                0x00000020       0x20 /home/sl/Code/School/CMPSC483W/zoidbergengine/devkitpro/devkitARM/bin/../lib/gcc/arm-eabi/4.4.2/crti.o
 .ARM.attributes
                0x00000040       0x30 /home/sl/Code/School/CMPSC483W/zoidbergengine/devkitpro/devkitARM/bin/../lib/gcc/arm-eabi/4.4.2/crtbegin.o
 .ARM.attributes
                0x00000070       0x2c main.o
 .ARM.attributes
                0x0000009c       0x2c /home/sl/Code/School/CMPSC483W/zoidbergengine/cb_project_linux/../devkitpro/libnds/lib/libdswifi7.a(wifi_arm7.o)
 .ARM.attributes
                0x000000c8       0x20 /home/sl/Code/School/CMPSC483W/zoidbergengine/cb_project_linux/../devkitpro/libnds/lib/libdswifi7.a(spinlock.o)
 .ARM.attributes
                0x000000e8       0x20 /home/sl/Code/School/CMPSC483W/zoidbergengine/cb_project_linux/../devkitpro/libnds/lib/libmm7.a(mm_main.o)
 .ARM.attributes
                0x00000108       0x20 /home/sl/Code/School/CMPSC483W/zoidbergengine/cb_project_linux/../devkitpro/libnds/lib/libmm7.a(mm_mas.o)
 .ARM.attributes
                0x00000128       0x1e /home/sl/Code/School/CMPSC483W/zoidbergengine/cb_project_linux/../devkitpro/libnds/lib/libmm7.a(mm_mas_arm.o)
 .ARM.attributes
                0x00000146       0x1e /home/sl/Code/School/CMPSC483W/zoidbergengine/cb_project_linux/../devkitpro/libnds/lib/libmm7.a(mm_comms7.o)
 .ARM.attributes
                0x00000164       0x20 /home/sl/Code/School/CMPSC483W/zoidbergengine/cb_project_linux/../devkitpro/libnds/lib/libmm7.a(mm_mixer_super.o)
 .ARM.attributes
                0x00000184       0x1e /home/sl/Code/School/CMPSC483W/zoidbergengine/cb_project_linux/../devkitpro/libnds/lib/libmm7.a(mm_reverb.o)
 .ARM.attributes
                0x000001a2       0x20 /home/sl/Code/School/CMPSC483W/zoidbergengine/cb_project_linux/../devkitpro/libnds/lib/libmm7.a(mm_stream.o)
 .ARM.attributes
                0x000001c2       0x1e /home/sl/Code/School/CMPSC483W/zoidbergengine/cb_project_linux/../devkitpro/libnds/lib/libmm7.a(mm_effect.o)
 .ARM.attributes
                0x000001e0       0x2c /home/sl/Code/School/CMPSC483W/zoidbergengine/cb_project_linux/../devkitpro/libnds/lib/libnds7.a(audio.o)
 .ARM.attributes
                0x0000020c       0x2c /home/sl/Code/School/CMPSC483W/zoidbergengine/cb_project_linux/../devkitpro/libnds/lib/libnds7.a(clock.o)
 .ARM.attributes
                0x00000238       0x2c /home/sl/Code/School/CMPSC483W/zoidbergengine/cb_project_linux/../devkitpro/libnds/lib/libnds7.a(input.o)
 .ARM.attributes
                0x00000264       0x2c /home/sl/Code/School/CMPSC483W/zoidbergengine/cb_project_linux/../devkitpro/libnds/lib/libnds7.a(microphone.o)
 .ARM.attributes
                0x00000290       0x2c /home/sl/Code/School/CMPSC483W/zoidbergengine/cb_project_linux/../devkitpro/libnds/lib/libnds7.a(spi.o)
 .ARM.attributes
                0x000002bc       0x2c /home/sl/Code/School/CMPSC483W/zoidbergengine/cb_project_linux/../devkitpro/libnds/lib/libnds7.a(system.o)
 .ARM.attributes
                0x000002e8       0x2c /home/sl/Code/School/CMPSC483W/zoidbergengine/cb_project_linux/../devkitpro/libnds/lib/libnds7.a(touch.o)
 .ARM.attributes
                0x00000314       0x2c /home/sl/Code/School/CMPSC483W/zoidbergengine/cb_project_linux/../devkitpro/libnds/lib/libnds7.a(userSettings.o)
 .ARM.attributes
                0x00000340       0x2c /home/sl/Code/School/CMPSC483W/zoidbergengine/cb_project_linux/../devkitpro/libnds/lib/libnds7.a(fifosystem.o)
 .ARM.attributes
                0x0000036c       0x2c /home/sl/Code/School/CMPSC483W/zoidbergengine/cb_project_linux/../devkitpro/libnds/lib/libnds7.a(interrupts.o)
 .ARM.attributes
                0x00000398       0x2c /home/sl/Code/School/CMPSC483W/zoidbergengine/cb_project_linux/../devkitpro/libnds/lib/libnds7.a(libnds_exit.o)
 .ARM.attributes
                0x000003c4       0x20 /home/sl/Code/School/CMPSC483W/zoidbergengine/cb_project_linux/../devkitpro/libnds/lib/libnds7.a(biosCalls.o)
 .ARM.attributes
                0x000003e4       0x20 /home/sl/Code/School/CMPSC483W/zoidbergengine/cb_project_linux/../devkitpro/libnds/lib/libnds7.a(interruptDispatcher.o)
 .ARM.attributes
                0x00000404       0x20 /home/sl/Code/School/CMPSC483W/zoidbergengine/devkitpro/devkitARM/bin/../lib/gcc/arm-eabi/4.4.2/libgcc.a(_divsi3.o)
 .ARM.attributes
                0x00000424       0x20 /home/sl/Code/School/CMPSC483W/zoidbergengine/devkitpro/devkitARM/bin/../lib/gcc/arm-eabi/4.4.2/libgcc.a(_dvmd_tls.o)
 .ARM.attributes
                0x00000444       0x20 /home/sl/Code/School/CMPSC483W/zoidbergengine/devkitpro/devkitARM/bin/../lib/gcc/arm-eabi/4.4.2/libgcc.a(_call_via_rX.o)
 .ARM.attributes
                0x00000464       0x30 /home/sl/Code/School/CMPSC483W/zoidbergengine/devkitpro/devkitARM/bin/../lib/gcc/arm-eabi/4.4.2/../../../../arm-eabi/lib/libg.a(lib_a-init.o)
 .ARM.attributes
                0x00000494       0x30 /home/sl/Code/School/CMPSC483W/zoidbergengine/devkitpro/devkitARM/bin/../lib/gcc/arm-eabi/4.4.2/../../../../arm-eabi/lib/libg.a(lib_a-memcpy.o)
 .ARM.attributes
                0x000004c4       0x30 /home/sl/Code/School/CMPSC483W/zoidbergengine/devkitpro/devkitARM/bin/../lib/gcc/arm-eabi/4.4.2/../../../../arm-eabi/lib/libg.a(lib_a-memset.o)
 .ARM.attributes
                0x000004f4       0x30 /home/sl/Code/School/CMPSC483W/zoidbergengine/devkitpro/devkitARM/bin/../lib/gcc/arm-eabi/4.4.2/crtend.o
 .ARM.attributes
                0x00000524       0x20 /home/sl/Code/School/CMPSC483W/zoidbergengine/devkitpro/devkitARM/bin/../lib/gcc/arm-eabi/4.4.2/crtn.o

.comment        0x00000000       0x22
 *(.comment)
 .comment       0x00000000       0x22 /home/sl/Code/School/CMPSC483W/zoidbergengine/devkitpro/devkitARM/bin/../lib/gcc/arm-eabi/4.4.2/crtbegin.o
                                 0x23 (size before relaxing)
 .comment       0x00000000       0x23 main.o
 .comment       0x00000000       0x23 /home/sl/Code/School/CMPSC483W/zoidbergengine/cb_project_linux/../devkitpro/libnds/lib/libdswifi7.a(wifi_arm7.o)
 .comment       0x00000000       0x23 /home/sl/Code/School/CMPSC483W/zoidbergengine/cb_project_linux/../devkitpro/libnds/lib/libnds7.a(audio.o)
 .comment       0x00000000       0x23 /home/sl/Code/School/CMPSC483W/zoidbergengine/cb_project_linux/../devkitpro/libnds/lib/libnds7.a(clock.o)
 .comment       0x00000000       0x23 /home/sl/Code/School/CMPSC483W/zoidbergengine/cb_project_linux/../devkitpro/libnds/lib/libnds7.a(input.o)
 .comment       0x00000000       0x23 /home/sl/Code/School/CMPSC483W/zoidbergengine/cb_project_linux/../devkitpro/libnds/lib/libnds7.a(microphone.o)
 .comment       0x00000000       0x23 /home/sl/Code/School/CMPSC483W/zoidbergengine/cb_project_linux/../devkitpro/libnds/lib/libnds7.a(spi.o)
 .comment       0x00000000       0x23 /home/sl/Code/School/CMPSC483W/zoidbergengine/cb_project_linux/../devkitpro/libnds/lib/libnds7.a(system.o)
 .comment       0x00000000       0x23 /home/sl/Code/School/CMPSC483W/zoidbergengine/cb_project_linux/../devkitpro/libnds/lib/libnds7.a(touch.o)
 .comment       0x00000000       0x23 /home/sl/Code/School/CMPSC483W/zoidbergengine/cb_project_linux/../devkitpro/libnds/lib/libnds7.a(userSettings.o)
 .comment       0x00000000       0x23 /home/sl/Code/School/CMPSC483W/zoidbergengine/cb_project_linux/../devkitpro/libnds/lib/libnds7.a(fifosystem.o)
 .comment       0x00000000       0x23 /home/sl/Code/School/CMPSC483W/zoidbergengine/cb_project_linux/../devkitpro/libnds/lib/libnds7.a(interrupts.o)
 .comment       0x00000000       0x23 /home/sl/Code/School/CMPSC483W/zoidbergengine/cb_project_linux/../devkitpro/libnds/lib/libnds7.a(libnds_exit.o)
 .comment       0x00000000       0x23 /home/sl/Code/School/CMPSC483W/zoidbergengine/devkitpro/devkitARM/bin/../lib/gcc/arm-eabi/4.4.2/../../../../arm-eabi/lib/libg.a(lib_a-init.o)
 .comment       0x00000000       0x23 /home/sl/Code/School/CMPSC483W/zoidbergengine/devkitpro/devkitARM/bin/../lib/gcc/arm-eabi/4.4.2/../../../../arm-eabi/lib/libg.a(lib_a-memcpy.o)
 .comment       0x00000000       0x23 /home/sl/Code/School/CMPSC483W/zoidbergengine/devkitpro/devkitARM/bin/../lib/gcc/arm-eabi/4.4.2/../../../../arm-eabi/lib/libg.a(lib_a-memset.o)
 .comment       0x00000000       0x23 /home/sl/Code/School/CMPSC483W/zoidbergengine/devkitpro/devkitARM/bin/../lib/gcc/arm-eabi/4.4.2/crtend.o

.debug
 *(.debug)

.line
 *(.line)

.debug_srcinfo
 *(.debug_srcinfo)

.debug_sfnames
 *(.debug_sfnames)

.debug_aranges  0x00000000       0xa0
 *(.debug_aranges)
 .debug_aranges
                0x00000000       0x20 main.o
 .debug_aranges
                0x00000020       0x20 /home/sl/Code/School/CMPSC483W/zoidbergengine/cb_project_linux/../devkitpro/libnds/lib/libdswifi7.a(wifi_arm7.o)
 .debug_aranges
                0x00000040       0x20 /home/sl/Code/School/CMPSC483W/zoidbergengine/cb_project_linux/../devkitpro/libnds/lib/libdswifi7.a(spinlock.o)
 .debug_aranges
                0x00000060       0x20 /home/sl/Code/School/CMPSC483W/zoidbergengine/cb_project_linux/../devkitpro/libnds/lib/libnds7.a(biosCalls.o)
 .debug_aranges
                0x00000080       0x20 /home/sl/Code/School/CMPSC483W/zoidbergengine/cb_project_linux/../devkitpro/libnds/lib/libnds7.a(interruptDispatcher.o)

.debug_pubnames
                0x00000000      0x5e7
 *(.debug_pubnames)
 .debug_pubnames
                0x00000000       0x3f main.o
 .debug_pubnames
                0x0000003f      0x5a8 /home/sl/Code/School/CMPSC483W/zoidbergengine/cb_project_linux/../devkitpro/libnds/lib/libdswifi7.a(wifi_arm7.o)

.debug_info     0x00000000     0x2858
 *(.debug_info)
 .debug_info    0x00000000      0x224 main.o
 .debug_info    0x00000224     0x23e6 /home/sl/Code/School/CMPSC483W/zoidbergengine/cb_project_linux/../devkitpro/libnds/lib/libdswifi7.a(wifi_arm7.o)
 .debug_info    0x0000260a       0xbe /home/sl/Code/School/CMPSC483W/zoidbergengine/cb_project_linux/../devkitpro/libnds/lib/libdswifi7.a(spinlock.o)
 .debug_info    0x000026c8       0xc3 /home/sl/Code/School/CMPSC483W/zoidbergengine/cb_project_linux/../devkitpro/libnds/lib/libnds7.a(biosCalls.o)
 .debug_info    0x0000278b       0xcd /home/sl/Code/School/CMPSC483W/zoidbergengine/cb_project_linux/../devkitpro/libnds/lib/libnds7.a(interruptDispatcher.o)

.debug_abbrev   0x00000000      0x658
 *(.debug_abbrev)
 .debug_abbrev  0x00000000       0xa8 main.o
 .debug_abbrev  0x000000a8      0x574 /home/sl/Code/School/CMPSC483W/zoidbergengine/cb_project_linux/../devkitpro/libnds/lib/libdswifi7.a(wifi_arm7.o)
 .debug_abbrev  0x0000061c       0x14 /home/sl/Code/School/CMPSC483W/zoidbergengine/cb_project_linux/../devkitpro/libnds/lib/libdswifi7.a(spinlock.o)
 .debug_abbrev  0x00000630       0x14 /home/sl/Code/School/CMPSC483W/zoidbergengine/cb_project_linux/../devkitpro/libnds/lib/libnds7.a(biosCalls.o)
 .debug_abbrev  0x00000644       0x14 /home/sl/Code/School/CMPSC483W/zoidbergengine/cb_project_linux/../devkitpro/libnds/lib/libnds7.a(interruptDispatcher.o)

.debug_line     0x00000000      0xe3c
 *(.debug_line)
 .debug_line    0x00000000      0x123 main.o
 .debug_line    0x00000123      0xaf2 /home/sl/Code/School/CMPSC483W/zoidbergengine/cb_project_linux/../devkitpro/libnds/lib/libdswifi7.a(wifi_arm7.o)
 .debug_line    0x00000c15       0x9b /home/sl/Code/School/CMPSC483W/zoidbergengine/cb_project_linux/../devkitpro/libnds/lib/libdswifi7.a(spinlock.o)
 .debug_line    0x00000cb0       0xcb /home/sl/Code/School/CMPSC483W/zoidbergengine/cb_project_linux/../devkitpro/libnds/lib/libnds7.a(biosCalls.o)
 .debug_line    0x00000d7b       0xc1 /home/sl/Code/School/CMPSC483W/zoidbergengine/cb_project_linux/../devkitpro/libnds/lib/libnds7.a(interruptDispatcher.o)

.debug_frame    0x00000000      0x70c
 *(.debug_frame)
 .debug_frame   0x00000000       0x64 main.o
 .debug_frame   0x00000064      0x6a8 /home/sl/Code/School/CMPSC483W/zoidbergengine/cb_project_linux/../devkitpro/libnds/lib/libdswifi7.a(wifi_arm7.o)

.debug_str      0x00000000     0x10d8
 *(.debug_str)
 .debug_str     0x00000000      0x2f8 main.o
                                0x331 (size before relaxing)
 .debug_str     0x000002f8      0xde0 /home/sl/Code/School/CMPSC483W/zoidbergengine/cb_project_linux/../devkitpro/libnds/lib/libdswifi7.a(wifi_arm7.o)
                               0x10d2 (size before relaxing)

.debug_loc      0x00000000     0x132e
 *(.debug_loc)
 .debug_loc     0x00000000       0x5d main.o
 .debug_loc     0x0000005d     0x12d1 /home/sl/Code/School/CMPSC483W/zoidbergengine/cb_project_linux/../devkitpro/libnds/lib/libdswifi7.a(wifi_arm7.o)

.debug_macinfo
 *(.debug_macinfo)

.debug_weaknames
 *(.debug_weaknames)

.debug_funcnames
 *(.debug_funcnames)

.debug_typenames
 *(.debug_typenames)

.debug_varnames
 *(.debug_varnames)

.stack          0x00080000        0x0
                0x00080000                _stack = .
 *(.stack)
LOAD /home/sl/Code/School/CMPSC483W/zoidbergengine/devkitpro/devkitARM/bin/../lib/gcc/arm-eabi/4.4.2/../../../../arm-eabi/lib/ds_arm7_crt0.o
LOAD /home/sl/Code/School/CMPSC483W/zoidbergengine/devkitpro/devkitARM/bin/../lib/gcc/arm-eabi/4.4.2/crti.o
LOAD /home/sl/Code/School/CMPSC483W/zoidbergengine/devkitpro/devkitARM/bin/../lib/gcc/arm-eabi/4.4.2/crtbegin.o
LOAD main.o
LOAD /home/sl/Code/School/CMPSC483W/zoidbergengine/cb_project_linux/../devkitpro/libnds/lib/libdswifi7.a
LOAD /home/sl/Code/School/CMPSC483W/zoidbergengine/cb_project_linux/../devkitpro/libnds/lib/libmm7.a
LOAD /home/sl/Code/School/CMPSC483W/zoidbergengine/cb_project_linux/../devkitpro/libnds/lib/libnds7.a
LOAD /home/sl/Code/School/CMPSC483W/zoidbergengine/devkitpro/devkitARM/bin/../lib/gcc/arm-eabi/4.4.2/../../../../arm-eabi/lib/libstdc++.a
LOAD /home/sl/Code/School/CMPSC483W/zoidbergengine/devkitpro/devkitARM/bin/../lib/gcc/arm-eabi/4.4.2/../../../../arm-eabi/lib/libm.a
START GROUP
LOAD /home/sl/Code/School/CMPSC483W/zoidbergengine/devkitpro/devkitARM/bin/../lib/gcc/arm-eabi/4.4.2/libgcc.a
LOAD /home/sl/Code/School/CMPSC483W/zoidbergengine/devkitpro/devkitARM/bin/../lib/gcc/arm-eabi/4.4.2/../../../../arm-eabi/lib/libg.a
LOAD /home/sl/Code/School/CMPSC483W/zoidbergengine/devkitpro/devkitARM/bin/../lib/gcc/arm-eabi/4.4.2/../../../../arm-eabi/lib/libc.a
LOAD /home/sl/Code/School/CMPSC483W/zoidbergengine/devkitpro/devkitARM/bin/../lib/gcc/arm-eabi/4.4.2/../../../../arm-eabi/lib/libsysbase.a
END GROUP
LOAD /home/sl/Code/School/CMPSC483W/zoidbergengine/devkitpro/devkitARM/bin/../lib/gcc/arm-eabi/4.4.2/crtend.o
LOAD /home/sl/Code/School/CMPSC483W/zoidbergengine/devkitpro/devkitARM/bin/../lib/gcc/arm-eabi/4.4.2/crtn.o
OUTPUT(/home/sl/Code/School/CMPSC483W/zoidbergengine/source/arm7/bin/zoidbergengine.arm7.elf elf32-littlearm)

.debug_ranges   0x00000000      0x550
 .debug_ranges  0x00000000      0x550 /home/sl/Code/School/CMPSC483W/zoidbergengine/cb_project_linux/../devkitpro/libnds/lib/libdswifi7.a(wifi_arm7.o)
